; ModuleID = '21/760.cpp'
source_filename = "21/760.cpp"
target datalayout = "e-m:e-p270:32:32-p271:32:32-p272:64:64-i64:64-f80:128-n8:16:32:64-S128"
target triple = "x86_64-pc-linux-gnu"

%"class.std::ios_base::Init" = type { i8 }
%"class.std::basic_istream" = type { i32 (...)**, i64, %"class.std::basic_ios" }
%"class.std::basic_ios" = type { %"class.std::ios_base", %"class.std::basic_ostream"*, i8, i8, %"class.std::basic_streambuf"*, %"class.std::ctype"*, %"class.std::num_put"*, %"class.std::num_get"* }
%"class.std::ios_base" = type { i32 (...)**, i64, i64, i32, i32, i32, %"struct.std::ios_base::_Callback_list"*, %"struct.std::ios_base::_Words", [8 x %"struct.std::ios_base::_Words"], i32, %"struct.std::ios_base::_Words"*, %"class.std::locale" }
%"struct.std::ios_base::_Callback_list" = type { %"struct.std::ios_base::_Callback_list"*, void (i32, %"class.std::ios_base"*, i32)*, i32, i32 }
%"struct.std::ios_base::_Words" = type { i8*, i64 }
%"class.std::locale" = type { %"class.std::locale::_Impl"* }
%"class.std::locale::_Impl" = type { i32, %"class.std::locale::facet"**, i64, %"class.std::locale::facet"**, i8** }
%"class.std::locale::facet" = type <{ i32 (...)**, i32, [4 x i8] }>
%"class.std::basic_ostream" = type { i32 (...)**, %"class.std::basic_ios" }
%"class.std::basic_streambuf" = type { i32 (...)**, i8*, i8*, i8*, i8*, i8*, i8*, %"class.std::locale" }
%"class.std::ctype" = type <{ %"class.std::locale::facet.base", [4 x i8], %struct.__locale_struct*, i8, [7 x i8], i32*, i32*, i16*, i8, [256 x i8], [256 x i8], i8, [6 x i8] }>
%"class.std::locale::facet.base" = type <{ i32 (...)**, i32 }>
%struct.__locale_struct = type { [13 x %struct.__locale_data*], i16*, i32*, i32*, [13 x i8*] }
%struct.__locale_data = type opaque
%"class.std::num_put" = type { %"class.std::locale::facet.base", [4 x i8] }
%"class.std::num_get" = type { %"class.std::locale::facet.base", [4 x i8] }

@_ZStL8__ioinit = internal global %"class.std::ios_base::Init" zeroinitializer, align 1
@__dso_handle = external hidden global i8
@_ZSt3cin = external dso_local global %"class.std::basic_istream", align 8
@_ZSt4cout = external dso_local global %"class.std::basic_ostream", align 8
@llvm.global_ctors = appending global [1 x { i32, void ()*, i8* }] [{ i32, void ()*, i8* } { i32 65535, void ()* @_GLOBAL__sub_I_760.cpp, i8* null }]

; Function Attrs: noinline uwtable
define internal void @__cxx_global_var_init() #0 section ".text.startup" {
  call void @_ZNSt8ios_base4InitC1Ev(%"class.std::ios_base::Init"* @_ZStL8__ioinit)
  %1 = call i32 @__cxa_atexit(void (i8*)* bitcast (void (%"class.std::ios_base::Init"*)* @_ZNSt8ios_base4InitD1Ev to void (i8*)*), i8* getelementptr inbounds (%"class.std::ios_base::Init", %"class.std::ios_base::Init"* @_ZStL8__ioinit, i32 0, i32 0), i8* @__dso_handle) #3
  ret void
}

declare dso_local void @_ZNSt8ios_base4InitC1Ev(%"class.std::ios_base::Init"*) unnamed_addr #1

; Function Attrs: nounwind
declare dso_local void @_ZNSt8ios_base4InitD1Ev(%"class.std::ios_base::Init"*) unnamed_addr #2

; Function Attrs: nounwind
declare dso_local i32 @__cxa_atexit(void (i8*)*, i8*, i8*) #3

; Function Attrs: noinline norecurse uwtable
define dso_local i32 @main() #4 {
  %1 = alloca i32, align 4
  %2 = alloca i32, align 4
  %3 = alloca i32, align 4
  %4 = alloca i32, align 4
  %5 = alloca i32, align 4
  %6 = alloca double, align 8
  %7 = alloca [300 x i32], align 16
  %8 = alloca i32, align 4
  %9 = alloca i32, align 4
  %10 = alloca i32, align 4
  store i32 0, i32* %1, align 4
  store i32 -99999, i32* %3, align 4
  %11 = load i32, i32* %3, align 4
  %12 = sub nsw i32 0, %11
  store i32 %12, i32* %4, align 4
  store i32 0, i32* %5, align 4
  %13 = call dereferenceable(280) %"class.std::basic_istream"* @_ZNSirsERi(%"class.std::basic_istream"* @_ZSt3cin, i32* dereferenceable(4) %2)
  store i32 0, i32* %8, align 4
  br label %14

14:                                               ; preds = %54, %0
  %15 = load i32, i32* %8, align 4
  %16 = load i32, i32* %2, align 4
  %17 = icmp slt i32 %15, %16
  br i1 %17, label %18, label %57

18:                                               ; preds = %14
  %19 = load i32, i32* %8, align 4
  %20 = sext i32 %19 to i64
  %21 = getelementptr inbounds [300 x i32], [300 x i32]* %7, i64 0, i64 %20
  %22 = call dereferenceable(280) %"class.std::basic_istream"* @_ZNSirsERi(%"class.std::basic_istream"* @_ZSt3cin, i32* dereferenceable(4) %21)
  %23 = load i32, i32* %8, align 4
  %24 = sext i32 %23 to i64
  %25 = getelementptr inbounds [300 x i32], [300 x i32]* %7, i64 0, i64 %24
  %26 = load i32, i32* %25, align 4
  %27 = load i32, i32* %4, align 4
  %28 = icmp slt i32 %26, %27
  br i1 %28, label %29, label %34

29:                                               ; preds = %18
  %30 = load i32, i32* %8, align 4
  %31 = sext i32 %30 to i64
  %32 = getelementptr inbounds [300 x i32], [300 x i32]* %7, i64 0, i64 %31
  %33 = load i32, i32* %32, align 4
  store i32 %33, i32* %4, align 4
  br label %47

34:                                               ; preds = %18
  %35 = load i32, i32* %8, align 4
  %36 = sext i32 %35 to i64
  %37 = getelementptr inbounds [300 x i32], [300 x i32]* %7, i64 0, i64 %36
  %38 = load i32, i32* %37, align 4
  %39 = load i32, i32* %3, align 4
  %40 = icmp sgt i32 %38, %39
  br i1 %40, label %41, label %46

41:                                               ; preds = %34
  %42 = load i32, i32* %8, align 4
  %43 = sext i32 %42 to i64
  %44 = getelementptr inbounds [300 x i32], [300 x i32]* %7, i64 0, i64 %43
  %45 = load i32, i32* %44, align 4
  store i32 %45, i32* %3, align 4
  br label %46

46:                                               ; preds = %41, %34
  br label %47

47:                                               ; preds = %46, %29
  %48 = load i32, i32* %8, align 4
  %49 = sext i32 %48 to i64
  %50 = getelementptr inbounds [300 x i32], [300 x i32]* %7, i64 0, i64 %49
  %51 = load i32, i32* %50, align 4
  %52 = load i32, i32* %5, align 4
  %53 = add nsw i32 %52, %51
  store i32 %53, i32* %5, align 4
  br label %54

54:                                               ; preds = %47
  %55 = load i32, i32* %8, align 4
  %56 = add nsw i32 %55, 1
  store i32 %56, i32* %8, align 4
  br label %14

57:                                               ; preds = %14
  %58 = load i32, i32* %5, align 4
  %59 = sitofp i32 %58 to double
  %60 = load i32, i32* %2, align 4
  %61 = sitofp i32 %60 to double
  %62 = fdiv double %59, %61
  store double %62, double* %6, align 8
  %63 = load i32, i32* %3, align 4
  %64 = sitofp i32 %63 to double
  %65 = load double, double* %6, align 8
  %66 = fsub double %64, %65
  %67 = load double, double* %6, align 8
  %68 = fsub double %66, %67
  %69 = load i32, i32* %4, align 4
  %70 = sitofp i32 %69 to double
  %71 = fadd double %68, %70
  %72 = call double @llvm.fabs.f64(double %71)
  %73 = fcmp olt double %72, 0x3EB0C6F7A0B5ED8D
  br i1 %73, label %74, label %80

74:                                               ; preds = %57
  %75 = load i32, i32* %4, align 4
  %76 = call dereferenceable(272) %"class.std::basic_ostream"* @_ZNSolsEi(%"class.std::basic_ostream"* @_ZSt4cout, i32 %75)
  %77 = call dereferenceable(272) %"class.std::basic_ostream"* @_ZStlsISt11char_traitsIcEERSt13basic_ostreamIcT_ES5_c(%"class.std::basic_ostream"* dereferenceable(272) %76, i8 signext 44)
  %78 = load i32, i32* %3, align 4
  %79 = call dereferenceable(272) %"class.std::basic_ostream"* @_ZNSolsEi(%"class.std::basic_ostream"* %77, i32 %78)
  br label %97

80:                                               ; preds = %57
  %81 = load i32, i32* %3, align 4
  %82 = sitofp i32 %81 to double
  %83 = load double, double* %6, align 8
  %84 = fsub double %82, %83
  %85 = load double, double* %6, align 8
  %86 = load i32, i32* %4, align 4
  %87 = sitofp i32 %86 to double
  %88 = fsub double %85, %87
  %89 = fcmp ogt double %84, %88
  br i1 %89, label %90, label %93

90:                                               ; preds = %80
  %91 = load i32, i32* %3, align 4
  %92 = call dereferenceable(272) %"class.std::basic_ostream"* @_ZNSolsEi(%"class.std::basic_ostream"* @_ZSt4cout, i32 %91)
  br label %96

93:                                               ; preds = %80
  %94 = load i32, i32* %4, align 4
  %95 = call dereferenceable(272) %"class.std::basic_ostream"* @_ZNSolsEi(%"class.std::basic_ostream"* @_ZSt4cout, i32 %94)
  br label %96

96:                                               ; preds = %93, %90
  br label %97

97:                                               ; preds = %96, %74
  ret i32 0
}

declare dso_local dereferenceable(280) %"class.std::basic_istream"* @_ZNSirsERi(%"class.std::basic_istream"*, i32* dereferenceable(4)) #1

; Function Attrs: nounwind readnone speculatable willreturn
declare double @llvm.fabs.f64(double) #5

declare dso_local dereferenceable(272) %"class.std::basic_ostream"* @_ZStlsISt11char_traitsIcEERSt13basic_ostreamIcT_ES5_c(%"class.std::basic_ostream"* dereferenceable(272), i8 signext) #1

declare dso_local dereferenceable(272) %"class.std::basic_ostream"* @_ZNSolsEi(%"class.std::basic_ostream"*, i32) #1

; Function Attrs: noinline uwtable
define internal void @_GLOBAL__sub_I_760.cpp() #0 section ".text.startup" {
  call void @__cxx_global_var_init()
  ret void
}


!llvm.module.flags = !{!0}
!llvm.ident = !{!1}

!0 = !{i32 1, !"wchar_size", i32 4}
!1 = !{!"clang version 10.0.0-4ubuntu1 "}
